target datalayout = "e-m:e-p270:32:32-p271:32:32-p272:64:64-i64:64-i128:128-f80:128-n8:16:32:64-S128"
target triple = "x86_64-pc-linux-gnu"

%struct.ec_curve_st = type { ptr, i32, i32, i64 }

@bio_err = external global ptr, align 8
@.str.113 = private unnamed_addr constant [3 x i8] c"EC\00", align 1
@.str.233 = private unnamed_addr constant [62 x i8] c"WARNING: the error queue contains previous unhandled errors.\0A\00", align 1
@testmoderesult = internal global i32 0, align 4
@.str.453 = private unnamed_addr constant [57 x i8] c"Unhandled error in the error queue during EC key setup.\0A\00", align 1
@.str.454 = private unnamed_addr constant [25 x i8] c"EC params init failure.\0A\00", align 1
@.str.455 = private unnamed_addr constant [28 x i8] c"EC key generation failure.\0A\00", align 1

; Function Attrs: inlinehint nounwind uwtable
define internal i32 @ERR_GET_REASON(i64 noundef %0) #5 {
  %2 = alloca i32, align 4
  %3 = alloca i64, align 8
  store i64 %0, ptr %3, align 8, !tbaa !50
  %4 = load i64, ptr %3, align 8, !tbaa !50
  %5 = and i64 %4, 2147483648
  %6 = icmp ne i64 %5, 0
  br i1 %6, label %7, label %11

7:                                                ; preds = %1
  %8 = load i64, ptr %3, align 8, !tbaa !50
  %9 = and i64 %8, 2147483647
  %10 = trunc i64 %9 to i32
  store i32 %10, ptr %2, align 4
  br label %15

11:                                               ; preds = %1
  %12 = load i64, ptr %3, align 8, !tbaa !50
  %13 = and i64 %12, 8388607
  %14 = trunc i64 %13 to i32
  store i32 %14, ptr %2, align 4
  br label %15

15:                                               ; preds = %11, %7
  %16 = load i32, ptr %2, align 4
  ret i32 %16
}

; Function Attrs: inlinehint nounwind uwtable
define internal i32 @ERR_GET_LIB(i64 noundef %0) #5 {
  %2 = alloca i32, align 4
  %3 = alloca i64, align 8
  store i64 %0, ptr %3, align 8, !tbaa !50
  %4 = load i64, ptr %3, align 8, !tbaa !50
  %5 = and i64 %4, 2147483648
  %6 = icmp ne i64 %5, 0
  br i1 %6, label %7, label %8

7:                                                ; preds = %1
  store i32 2, ptr %2, align 4
  br label %13

8:                                                ; preds = %1
  %9 = load i64, ptr %3, align 8, !tbaa !50
  %10 = lshr i64 %9, 23
  %11 = and i64 %10, 255
  %12 = trunc i64 %11 to i32
  store i32 %12, ptr %2, align 4
  br label %13

13:                                               ; preds = %8, %7
  %14 = load i32, ptr %2, align 4
  ret i32 %14
}

; Function Attrs: nounwind uwtable
define internal void @dofail() #0 {
  %1 = load ptr, ptr @bio_err, align 8, !tbaa !53
  call void @ERR_print_errors(ptr noundef %1)
  store i32 1, ptr @testmoderesult, align 4, !tbaa !4
  ret void
}

; Function Attrs: nounwind uwtable
define internal ptr @get_ecdsa(ptr noundef %0) #0 {
  %2 = alloca ptr, align 8
  %3 = alloca ptr, align 8
  %4 = alloca ptr, align 8
  %5 = alloca ptr, align 8
  %6 = alloca ptr, align 8
  %7 = alloca ptr, align 8
  %8 = alloca i64, align 8
  %9 = alloca i32, align 4
  store ptr %0, ptr %3, align 8, !tbaa !280
  call void @llvm.lifetime.start.p0(i64 8, ptr %4) #11
  store ptr null, ptr %4, align 8, !tbaa !27
  call void @llvm.lifetime.start.p0(i64 8, ptr %5) #11
  store ptr null, ptr %5, align 8, !tbaa !8
  %10 = call i64 @ERR_peek_error()
  %11 = icmp ne i64 %10, 0
  br i1 %11, label %12, label %15

12:                                               ; preds = %1
  %13 = load ptr, ptr @bio_err, align 8, !tbaa !53
  %14 = call i32 (ptr, ptr, ...) @BIO_printf(ptr noundef %13, ptr noundef @.str.233)
  call void @dofail()
  br label %15

15:                                               ; preds = %12, %1
  %16 = load ptr, ptr %3, align 8, !tbaa !280
  %17 = getelementptr inbounds nuw %struct.ec_curve_st, ptr %16, i32 0, i32 1
  %18 = load i32, ptr %17, align 8, !tbaa !171
  %19 = call ptr @EVP_PKEY_CTX_new_id(i32 noundef %18, ptr noundef null)
  store ptr %19, ptr %4, align 8, !tbaa !27
  %20 = load ptr, ptr %4, align 8, !tbaa !27
  %21 = icmp eq ptr %20, null
  br i1 %21, label %22, label %77

22:                                               ; preds = %15
  call void @llvm.lifetime.start.p0(i64 8, ptr %6) #11
  store ptr null, ptr %6, align 8, !tbaa !27
  call void @llvm.lifetime.start.p0(i64 8, ptr %7) #11
  store ptr null, ptr %7, align 8, !tbaa !8
  call void @llvm.lifetime.start.p0(i64 8, ptr %8) #11
  %23 = call i64 @ERR_peek_error()
  store i64 %23, ptr %8, align 8, !tbaa !50
  %24 = load i64, ptr %8, align 8, !tbaa !50
  %25 = call i64 @ERR_peek_last_error()
  %26 = icmp eq i64 %24, %25
  br i1 %26, label %27, label %41

27:                                               ; preds = %22
  %28 = load i64, ptr %8, align 8, !tbaa !50
  %29 = call i32 @ERR_GET_LIB(i64 noundef %28)
  %30 = icmp eq i32 %29, 6
  br i1 %30, label %31, label %41

31:                                               ; preds = %27
  %32 = load i64, ptr %8, align 8, !tbaa !50
  %33 = call i32 @ERR_GET_REASON(i64 noundef %32)
  %34 = icmp eq i32 %33, 156
  br i1 %34, label %39, label %35

35:                                               ; preds = %31
  %36 = load i64, ptr %8, align 8, !tbaa !50
  %37 = call i32 @ERR_GET_REASON(i64 noundef %36)
  %38 = icmp eq i32 %37, 524556
  br i1 %38, label %39, label %41

39:                                               ; preds = %35, %31
  %40 = call i64 @ERR_get_error()
  br label %41

41:                                               ; preds = %39, %35, %27, %22
  %42 = call i64 @ERR_peek_error()
  %43 = icmp ne i64 %42, 0
  br i1 %43, label %44, label %47

44:                                               ; preds = %41
  %45 = load ptr, ptr @bio_err, align 8, !tbaa !53
  %46 = call i32 (ptr, ptr, ...) @BIO_printf(ptr noundef %45, ptr noundef @.str.453)
  call void @dofail()
  store ptr null, ptr %2, align 8
  store i32 1, ptr %9, align 4
  br label %74

47:                                               ; preds = %41
  %48 = call ptr @EVP_PKEY_CTX_new_from_name(ptr noundef null, ptr noundef @.str.113, ptr noundef null)
  store ptr %48, ptr %6, align 8, !tbaa !27
  %49 = icmp eq ptr %48, null
  br i1 %49, label %65, label %50

50:                                               ; preds = %47
  %51 = load ptr, ptr %6, align 8, !tbaa !27
  %52 = call i32 @EVP_PKEY_paramgen_init(ptr noundef %51)
  %53 = icmp sle i32 %52, 0
  br i1 %53, label %65, label %54

54:                                               ; preds = %50
  %55 = load ptr, ptr %6, align 8, !tbaa !27
  %56 = load ptr, ptr %3, align 8, !tbaa !280
  %57 = getelementptr inbounds nuw %struct.ec_curve_st, ptr %56, i32 0, i32 1
  %58 = load i32, ptr %57, align 8, !tbaa !171
  %59 = call i32 @EVP_PKEY_CTX_set_ec_paramgen_curve_nid(ptr noundef %55, i32 noundef %58)
  %60 = icmp sle i32 %59, 0
  br i1 %60, label %65, label %61

61:                                               ; preds = %54
  %62 = load ptr, ptr %6, align 8, !tbaa !27
  %63 = call i32 @EVP_PKEY_paramgen(ptr noundef %62, ptr noundef %7)
  %64 = icmp sle i32 %63, 0
  br i1 %64, label %65, label %69

65:                                               ; preds = %61, %54, %50, %47
  %66 = load ptr, ptr @bio_err, align 8, !tbaa !53
  %67 = call i32 (ptr, ptr, ...) @BIO_printf(ptr noundef %66, ptr noundef @.str.454)
  call void @dofail()
  %68 = load ptr, ptr %6, align 8, !tbaa !27
  call void @EVP_PKEY_CTX_free(ptr noundef %68)
  store ptr null, ptr %2, align 8
  store i32 1, ptr %9, align 4
  br label %74

69:                                               ; preds = %61
  %70 = load ptr, ptr %6, align 8, !tbaa !27
  call void @EVP_PKEY_CTX_free(ptr noundef %70)
  %71 = load ptr, ptr %7, align 8, !tbaa !8
  %72 = call ptr @EVP_PKEY_CTX_new(ptr noundef %71, ptr noundef null)
  store ptr %72, ptr %4, align 8, !tbaa !27
  %73 = load ptr, ptr %7, align 8, !tbaa !8
  call void @EVP_PKEY_free(ptr noundef %73)
  store i32 0, ptr %9, align 4
  br label %74

74:                                               ; preds = %69, %65, %44
  call void @llvm.lifetime.end.p0(i64 8, ptr %8) #11
  call void @llvm.lifetime.end.p0(i64 8, ptr %7) #11
  call void @llvm.lifetime.end.p0(i64 8, ptr %6) #11
  %75 = load i32, ptr %9, align 4
  switch i32 %75, label %94 [
    i32 0, label %76
  ]

76:                                               ; preds = %74
  br label %77

77:                                               ; preds = %76, %15
  %78 = load ptr, ptr %4, align 8, !tbaa !27
  %79 = icmp eq ptr %78, null
  br i1 %79, label %88, label %80

80:                                               ; preds = %77
  %81 = load ptr, ptr %4, align 8, !tbaa !27
  %82 = call i32 @EVP_PKEY_keygen_init(ptr noundef %81)
  %83 = icmp sle i32 %82, 0
  br i1 %83, label %88, label %84

84:                                               ; preds = %80
  %85 = load ptr, ptr %4, align 8, !tbaa !27
  %86 = call i32 @EVP_PKEY_keygen(ptr noundef %85, ptr noundef %5)
  %87 = icmp sle i32 %86, 0
  br i1 %87, label %88, label %91

88:                                               ; preds = %84, %80, %77
  %89 = load ptr, ptr @bio_err, align 8, !tbaa !53
  %90 = call i32 (ptr, ptr, ...) @BIO_printf(ptr noundef %89, ptr noundef @.str.455)
  call void @dofail()
  store ptr null, ptr %5, align 8, !tbaa !8
  br label %91

91:                                               ; preds = %88, %84
  %92 = load ptr, ptr %4, align 8, !tbaa !27
  call void @EVP_PKEY_CTX_free(ptr noundef %92)
  %93 = load ptr, ptr %5, align 8, !tbaa !8
  store ptr %93, ptr %2, align 8
  store i32 1, ptr %9, align 4
  br label %94

94:                                               ; preds = %91, %74
  call void @llvm.lifetime.end.p0(i64 8, ptr %5) #11
  call void @llvm.lifetime.end.p0(i64 8, ptr %4) #11
  %95 = load ptr, ptr %2, align 8
  ret ptr %95
}