; Function Attrs: nounwind uwtable
define internal fastcc ptr @get_ecdsa(ptr noundef readonly captures(none) %0) unnamed_addr #0 {
  %2 = alloca ptr, align 8
  %3 = alloca ptr, align 8
  call void @llvm.lifetime.start.p0(i64 8, ptr nonnull %2) #14
  store ptr null, ptr %2, align 8, !tbaa !4
  %4 = tail call i64 @ERR_peek_error() #14
  %.not = icmp eq i64 %4, 0
  br i1 %.not, label %9, label %5

5:                                                ; preds = %1
  %6 = load ptr, ptr @bio_err, align 8, !tbaa !19
  %7 = tail call i32 (ptr, ptr, ...) @BIO_printf(ptr noundef %6, ptr noundef nonnull @.str.233) #14
  %8 = load ptr, ptr @bio_err, align 8, !tbaa !19
  tail call void @ERR_print_errors(ptr noundef %8) #14
  store i1 true, ptr @testmoderesult, align 4
  br label %9

9:                                                ; preds = %5, %1
  %10 = getelementptr inbounds nuw i8, ptr %0, i64 8
  %11 = load i32, ptr %10, align 8, !tbaa !134
  %12 = tail call ptr @EVP_PKEY_CTX_new_id(i32 noundef %11, ptr noundef null) #14
  %13 = icmp eq ptr %12, null
  br i1 %13, label %14, label %.thread32

14:                                               ; preds = %9
  call void @llvm.lifetime.start.p0(i64 8, ptr nonnull %3) #14
  store ptr null, ptr %3, align 8, !tbaa !4
  %15 = tail call i64 @ERR_peek_error() #14
  %16 = tail call i64 @ERR_peek_last_error() #14
  %17 = icmp eq i64 %15, %16
  br i1 %17, label %18, label %26

18:                                               ; preds = %14
  %19 = and i64 %15, 2147483648
  %.not.i = icmp eq i64 %19, 0
  %20 = trunc i64 %15 to i32
  %.mask = and i32 %20, -8388608
  %21 = icmp eq i32 %.mask, 50331648
  %22 = select i1 %.not.i, i1 %21, i1 false
  br i1 %22, label %23, label %26

23:                                               ; preds = %18
  %.0.i26 = and i32 %20, 8388607
  switch i32 %.0.i26, label %26 [
    i32 156, label %24
    i32 524556, label %24
  ]

24:                                               ; preds = %23, %23
  %25 = tail call i64 @ERR_get_error() #14
  br label %26

26:                                               ; preds = %23, %24, %18, %14
  %27 = tail call i64 @ERR_peek_error() #14
  %.not24 = icmp eq i64 %27, 0
  br i1 %.not24, label %32, label %28

28:                                               ; preds = %26
  %29 = load ptr, ptr @bio_err, align 8, !tbaa !19
  %30 = tail call i32 (ptr, ptr, ...) @BIO_printf(ptr noundef %29, ptr noundef nonnull @.str.453) #14
  %31 = load ptr, ptr @bio_err, align 8, !tbaa !19
  tail call void @ERR_print_errors(ptr noundef %31) #14
  store i1 true, ptr @testmoderesult, align 4
  br label %.thread

32:                                               ; preds = %26
  %33 = tail call ptr @EVP_PKEY_CTX_new_from_name(ptr noundef null, ptr noundef nonnull @.str.113, ptr noundef null) #14
  %34 = icmp eq ptr %33, null
  br i1 %34, label %45, label %35

35:                                               ; preds = %32
  %36 = tail call i32 @EVP_PKEY_paramgen_init(ptr noundef nonnull %33) #14
  %37 = icmp slt i32 %36, 1
  br i1 %37, label %45, label %38

38:                                               ; preds = %35
  %39 = load i32, ptr %10, align 8, !tbaa !134
  %40 = tail call i32 @EVP_PKEY_CTX_set_ec_paramgen_curve_nid(ptr noundef nonnull %33, i32 noundef %39) #14
  %41 = icmp slt i32 %40, 1
  br i1 %41, label %45, label %42

42:                                               ; preds = %38
  %43 = call i32 @EVP_PKEY_paramgen(ptr noundef nonnull %33, ptr noundef nonnull %3) #14
  %44 = icmp slt i32 %43, 1
  br i1 %44, label %45, label %49

45:                                               ; preds = %42, %38, %35, %32
  %46 = load ptr, ptr @bio_err, align 8, !tbaa !19
  %47 = call i32 (ptr, ptr, ...) @BIO_printf(ptr noundef %46, ptr noundef nonnull @.str.454) #14
  %48 = load ptr, ptr @bio_err, align 8, !tbaa !19
  call void @ERR_print_errors(ptr noundef %48) #14
  store i1 true, ptr @testmoderesult, align 4
  call void @EVP_PKEY_CTX_free(ptr noundef %33) #14
  br label %.thread

.thread:                                          ; preds = %28, %45
  call void @llvm.lifetime.end.p0(i64 8, ptr nonnull %3) #14
  br label %65

49:                                               ; preds = %42
  call void @EVP_PKEY_CTX_free(ptr noundef nonnull %33) #14
  %50 = load ptr, ptr %3, align 8, !tbaa !4
  %51 = call ptr @EVP_PKEY_CTX_new(ptr noundef %50, ptr noundef null) #14
  %52 = load ptr, ptr %3, align 8, !tbaa !4
  call void @EVP_PKEY_free(ptr noundef %52) #14
  call void @llvm.lifetime.end.p0(i64 8, ptr nonnull %3) #14
  %53 = icmp eq ptr %51, null
  br i1 %53, label %59, label %.thread32

.thread32:                                        ; preds = %9, %49
  %.01836 = phi ptr [ %51, %49 ], [ %12, %9 ]
  %54 = call i32 @EVP_PKEY_keygen_init(ptr noundef nonnull %.01836) #14
  %55 = icmp slt i32 %54, 1
  br i1 %55, label %59, label %56

56:                                               ; preds = %.thread32
  %57 = call i32 @EVP_PKEY_keygen(ptr noundef nonnull %.01836, ptr noundef nonnull %2) #14
  %58 = icmp slt i32 %57, 1
  br i1 %58, label %59, label %63

59:                                               ; preds = %56, %.thread32, %49
  %.01835 = phi ptr [ %.01836, %56 ], [ %.01836, %.thread32 ], [ null, %49 ]
  %60 = load ptr, ptr @bio_err, align 8, !tbaa !19
  %61 = call i32 (ptr, ptr, ...) @BIO_printf(ptr noundef %60, ptr noundef nonnull @.str.455) #14
  %62 = load ptr, ptr @bio_err, align 8, !tbaa !19
  call void @ERR_print_errors(ptr noundef %62) #14
  store i1 true, ptr @testmoderesult, align 4
  store ptr null, ptr %2, align 8, !tbaa !4
  br label %63

63:                                               ; preds = %59, %56
  %.01834 = phi ptr [ %.01835, %59 ], [ %.01836, %56 ]
  call void @EVP_PKEY_CTX_free(ptr noundef %.01834) #14
  %64 = load ptr, ptr %2, align 8, !tbaa !4
  br label %65

65:                                               ; preds = %.thread, %63
  %.1 = phi ptr [ %64, %63 ], [ null, %.thread ]
  call void @llvm.lifetime.end.p0(i64 8, ptr nonnull %2) #14
  ret ptr %.1
}